(lp0
(iclass_pictures
Pictures
p1
(dp2
S'name'
p3
S'../../Data/image_labelling_datasets/iaprtc12/images/00/25.jpg'
p4
sS'lab'
p5
(lp6
(lp7
I66329
aI8641
aI8737
aI7203
aI6130
aI5657
aI4625
aI9026
aI8476
aI5128
aI6052
aI10810
aI14754
aI9485
aI1666
aI81
aa(lp8
I0
aI0
aI0
aI0
aI0
aI0
aI207
aI23055
aI147759
aI1344
aI165
aI232
aI38
aI0
aI0
aI0
aa(lp9
I0
aI0
aI0
aI0
aI0
aI500
aI977
aI37882
aI113714
aI16055
aI3617
aI55
aI0
aI0
aI0
aI0
aasS'rgb'
p10
(lp11
(lp12
I74890
aI10558
aI7189
aI7333
aI7126
aI9913
aI7441
aI2333
aI2388
aI3645
aI7194
aI9947
aI14723
aI7655
aI450
aI15
aa(lp13
I64354
aI12104
aI10039
aI7315
aI6861
aI5333
aI8728
aI8936
aI5122
aI4192
aI8465
aI12295
aI12687
aI5562
aI774
aI33
aa(lp14
I58806
aI12676
aI8641
aI8154
aI7910
aI6205
aI3982
aI4191
aI8813
aI8297
aI8782
aI12040
aI13502
aI8231
aI2167
aI403
aasS'hsv'
p15
(lp16
(lp17
I79305
aI25985
aI10391
aI6925
aI1714
aI890
aI3455
aI10205
aI10082
aI8380
aI12694
aI2774
aI0
aI0
aI0
aI0
aa(lp18
I61292
aI10257
aI7635
aI6934
aI8260
aI12842
aI5384
aI3852
aI5365
aI4719
aI4386
aI3628
aI2742
aI3342
aI2599
aI29563
aa(lp19
I57430
aI12823
aI8681
aI8357
aI7692
aI6187
aI3838
aI4001
aI8764
aI8312
aI8305
aI11999
aI15045
aI8774
aI2187
aI405
aasS'keywords'
p20
(lp21
S'round'
p22
aS'woman'
p23
aS'front'
p24
aS'square'
p25
aS'house'
p26
aS'back'
p27
aS'palm'
p28
aS'man'
p29
aS'ground'
p30
aS'column'
p31
aS'building'
p32
aS'park'
p33
aS'child'
p34
aS'white'
p35
aS'car'
p36
aS'tree'
p37
asS'data'
p38
(lp39
sba(iclass_pictures
Pictures
p40
(dp41
g3
S'../../Data/image_labelling_datasets/iaprtc12/images/00/28.jpg'
p42
sg5
(lp43
(lp44
I9077
aI8014
aI8392
aI6238
aI3610
aI2306
aI1557
aI9075
aI21366
aI13933
aI15015
aI22237
aI21968
aI18130
aI10968
aI914
aa(lp45
I0
aI0
aI0
aI0
aI0
aI0
aI0
aI6556
aI164885
aI1359
aI0
aI0
aI0
aI0
aI0
aI0
aa(lp46
I0
aI0
aI0
aI0
aI0
aI4142
aI34972
aI84450
aI28619
aI19598
aI1019
aI0
aI0
aI0
aI0
aI0
aasg10
(lp47
(lp48
I26376
aI7290
aI3005
aI1418
aI925
aI739
aI606
aI581
aI735
aI1176
aI29421
aI42052
aI28607
aI19771
aI9663
aI435
aa(lp49
I8093
aI10703
aI9818
aI5737
aI2827
aI1791
aI3597
aI15957
aI19514
aI13650
aI18428
aI24190
aI16578
aI17371
aI4028
aI518
aa(lp50
I3709
aI7488
aI7900
aI7722
aI7482
aI14457
aI14873
aI9995
aI8758
aI9580
aI13801
aI18619
aI18371
aI14620
aI13496
aI1929
aasg15
(lp51
(lp52
I19594
aI22824
aI1108
aI202
aI52
aI76
aI32072
aI37488
aI24469
aI18984
aI14474
aI1457
aI0
aI0
aI0
aI0
aa(lp53
I49519
aI29035
aI10624
aI8085
aI6646
aI7009
aI8950
aI11838
aI6218
aI2337
aI3216
aI4032
aI3953
aI3854
aI3402
aI14082
aa(lp54
I3630
aI7415
aI7860
aI7713
aI5557
aI3297
aI2073
aI1642
aI1224
aI1181
aI28910
aI41880
aI29064
aI15918
aI13507
aI1929
aasg20
(lp55
S'sky'
p56
aS'bush'
p57
aS'hill'
p58
aS'street'
p59
aS'cloud'
p60
aS'bus'
p61
aS'white'
p62
aS'tree'
p63
aS'picture'
p64
aS'statue'
p65
asg38
(lp66
sba(iclass_pictures
Pictures
p67
(dp68
g3
S'../../Data/image_labelling_datasets/iaprtc12/images/00/32.jpg'
p69
sg5
(lp70
(lp71
I6331
aI6294
aI7764
aI8207
aI9595
aI11628
aI12852
aI13679
aI15263
aI15896
aI14745
aI13242
aI12305
aI10392
aI7498
aI7109
aa(lp72
I0
aI0
aI0
aI0
aI0
aI0
aI101
aI33990
aI124984
aI12343
aI1355
aI27
aI0
aI0
aI0
aI0
aa(lp73
I0
aI0
aI0
aI0
aI0
aI0
aI505
aI20437
aI116715
aI28285
aI6020
aI834
aI4
aI0
aI0
aI0
aasg10
(lp74
(lp75
I13188
aI10351
aI11147
aI11925
aI12839
aI13683
aI13667
aI13274
aI12543
aI12715
aI12736
aI11589
aI9434
aI6990
aI4905
aI1814
aa(lp76
I5127
aI8004
aI9814
aI10619
aI12622
aI13840
aI14433
aI14755
aI15019
aI14542
aI12567
aI11790
aI10310
aI7933
aI5829
aI5596
aa(lp77
I4440
aI6208
aI7442
aI8163
aI9044
aI10234
aI11625
aI13615
aI14674
aI13999
aI13554
aI13406
aI12843
aI11215
aI8962
aI13376
aasg15
(lp78
(lp79
I84704
aI45901
aI8322
aI3504
aI1458
aI1344
aI5307
aI5743
aI2737
aI3007
aI6887
aI3886
aI0
aI0
aI0
aI0
aa(lp80
I11417
aI28551
aI29852
aI24859
aI18221
aI13177
aI10452
aI8169
aI6452
aI4876
aI3647
aI2680
aI1910
aI1532
aI1170
aI5835
aa(lp81
I3141
aI5976
aI7733
aI8250
aI9092
aI10341
aI11456
aI12599
aI13533
aI14155
aI14811
aI14229
aI13276
aI11623
aI9106
aI13479
aasg20
(lp82
S'red'
p83
aS'house'
p84
aS'roof'
p85
aS'man'
p86
aS'city'
p87
aS'building'
p88
aS'stadium'
p89
aS'white'
p90
aS'tree'
p91
aS'centre'
p92
aS'green'
p93
asg38
(lp94
sba(iclass_pictures
Pictures
p95
(dp96
g3
S'../../Data/image_labelling_datasets/iaprtc12/images/00/33.jpg'
p97
sg5
(lp98
(lp99
I10757
aI8321
aI10855
aI11865
aI12647
aI15390
aI16054
aI11375
aI6847
aI5729
aI9974
aI12437
aI3072
aI2138
aI2115
aI33224
aa(lp100
I0
aI0
aI0
aI0
aI0
aI1605
aI32038
aI74677
aI63900
aI580
aI0
aI0
aI0
aI0
aI0
aI0
aa(lp101
I0
aI0
aI0
aI0
aI0
aI0
aI0
aI13832
aI94566
aI35790
aI21686
aI6762
aI164
aI0
aI0
aI0
aasg10
(lp102
(lp103
I51519
aI13893
aI7843
aI6585
aI7685
aI8332
aI7718
aI7377
aI10119
aI9496
aI2933
aI2099
aI1857
aI1753
aI2112
aI31479
aa(lp104
I7418
aI9361
aI11855
aI13211
aI13984
aI16868
aI16697
aI9921
aI7166
aI8838
aI13509
aI5129
aI2191
aI1880
aI1888
aI32884
aa(lp105
I15916
aI11727
aI13829
aI15471
aI16088
aI14689
aI8883
aI5533
aI3653
aI3399
aI5282
aI10574
aI9602
aI2495
aI3034
aI32625
aasg15
(lp106
(lp107
I41795
aI27441
aI54000
aI22915
aI4711
aI13800
aI4934
aI797
aI323
aI930
aI955
aI199
aI0
aI0
aI0
aI0
aa(lp108
I38890
aI11066
aI9548
aI17934
aI14007
aI5503
aI3666
aI3094
aI3327
aI3740
aI4199
aI4855
aI5149
aI6069
aI6504
aI35249
aa(lp109
I7027
aI8507
aI11362
aI13209
aI14088
aI16436
aI16053
aI10720
aI6229
aI4567
aI5774
aI10829
aI9666
aI2446
aI2018
aI33869
aasg20
(lp110
S'round'
p111
aS'front'
p112
aS'ground'
p113
aS'dirt'
p114
aS'waterfall'
p115
aS'view'
p116
aS'pool'
p117
aS'middle'
p118
aS'water'
p119
aS'jungle'
p120
asg38
(lp121
sba(iclass_pictures
Pictures
p122
(dp123
g3
S'../../Data/image_labelling_datasets/iaprtc12/images/00/40.jpg'
p124
sg5
(lp125
(lp126
I2786
aI5994
aI12542
aI11640
aI14491
aI18443
aI13490
aI11578
aI28165
aI34410
aI14113
aI4550
aI594
aI4
aI0
aI0
aa(lp127
I0
aI0
aI0
aI0
aI0
aI0
aI88
aI47578
aI124710
aI424
aI0
aI0
aI0
aI0
aI0
aI0
aa(lp128
I0
aI0
aI0
aI0
aI0
aI20900
aI34250
aI68593
aI16229
aI32225
aI603
aI0
aI0
aI0
aI0
aI0
aasg10
(lp129
(lp130
I20360
aI14120
aI6302
aI2631
aI1354
aI1083
aI1924
aI11626
aI23404
aI43536
aI36792
aI8861
aI793
aI14
aI0
aI0
aa(lp131
I1956
aI7625
aI14998
aI12504
aI20319
aI14844
aI12429
aI15845
aI38103
aI23784
aI8459
aI1834
aI100
aI0
aI0
aI0
aa(lp132
I1966
aI7050
aI24641
aI21721
aI16618
aI12767
aI15676
aI26954
aI24922
aI11433
aI6161
aI2271
aI557
aI63
aI0
aI0
aasg15
(lp133
(lp134
I13765
aI27916
aI6438
aI785
aI17
aI22
aI105473
aI17513
aI612
aI92
aI136
aI31
aI0
aI0
aI0
aI0
aa(lp135
I2490
aI11507
aI25043
aI24363
aI13322
aI9289
aI8079
aI7782
aI8704
aI12285
aI15155
aI15100
aI5991
aI3916
aI2374
aI7400
aa(lp136
I1061
aI3656
aI9731
aI12217
aI9369
aI5582
aI3322
aI11303
aI23579
aI44253
aI37796
aI9658
aI1197
aI76
aI0
aI0
aasg20
(lp137
S'sky'
p138
aS'round'
p139
aS'back'
p140
aS'cloud'
p141
aS'ground'
p142
aS'white'
p143
asg38
(lp144
sba(iclass_pictures
Pictures
p145
(dp146
g3
S'../../Data/image_labelling_datasets/iaprtc12/images/00/47.jpg'
p147
sg5
(lp148
(lp149
I33844
aI12087
aI14269
aI13953
aI14498
aI15576
aI10081
aI6577
aI2646
aI1188
aI1448
aI7785
aI5815
aI10900
aI14040
aI8093
aa(lp150
I0
aI0
aI0
aI0
aI0
aI0
aI3256
aI110411
aI57715
aI1417
aI1
aI0
aI0
aI0
aI0
aI0
aa(lp151
I0
aI0
aI0
aI0
aI0
aI0
aI355
aI36539
aI119117
aI11639
aI3740
aI1392
aI18
aI0
aI0
aI0
aasg10
(lp152
(lp153
I35306
aI19292
aI19259
aI16847
aI15322
aI13362
aI5802
aI1757
aI724
aI2192
aI7386
aI5246
aI4814
aI8555
aI16729
aI207
aa(lp154
I29882
aI15253
aI16871
aI16273
aI15958
aI14469
aI9429
aI4980
aI1496
aI1000
aI3590
aI7091
aI5641
aI9499
aI12967
aI8401
aa(lp155
I32177
aI15824
aI17577
aI16726
aI15290
aI11171
aI7515
aI3710
aI2414
aI1183
aI4598
aI8274
aI10108
aI12899
aI6951
aI6383
aasg15
(lp156
(lp157
I17501
aI45722
aI23554
aI17743
aI17699
aI31357
aI13212
aI4026
aI668
aI178
aI869
aI271
aI0
aI0
aI0
aI0
aa(lp158
I18427
aI37418
aI20242
aI14336
aI12358
aI10721
aI10627
aI7866
aI7951
aI5425
aI4168
aI3611
aI1905
aI2027
aI1144
aI14574
aa(lp159
I27127
aI14311
aI15821
aI15658
aI15523
aI15200
aI10859
aI5317
aI2558
aI1146
aI3042
aI7365
aI4711
aI9882
aI13925
aI10355
aasg20
(lp160
S'one'
p161
aS'shade'
p162
aS'tower'
p163
aS'sun'
p164
aS'church'
p165
aS'city'
p166
asg38
(lp167
sba(iclass_pictures
Pictures
p168
(dp169
g3
S'../../Data/image_labelling_datasets/iaprtc12/images/00/48.jpg'
p170
sg5
(lp171
(lp172
I31780
aI12601
aI10702
aI9962
aI11206
aI9793
aI8263
aI7535
aI4778
aI2719
aI2429
aI3729
aI7472
aI24438
aI19778
aI5615
aa(lp173
I0
aI0
aI0
aI0
aI0
aI0
aI0
aI67607
aI99247
aI5887
aI59
aI0
aI0
aI0
aI0
aI0
aa(lp174
I0
aI0
aI0
aI0
aI0
aI0
aI278
aI49915
aI88839
aI20767
aI8328
aI4640
aI33
aI0
aI0
aI0
aasg10
(lp175
(lp176
I32373
aI23744
aI14569
aI10859
aI10240
aI12622
aI8257
aI2855
aI1248
aI3057
aI3277
aI3139
aI4157
aI27556
aI14743
aI104
aa(lp177
I27509
aI17539
aI12694
aI12250
aI12009
aI9776
aI8376
aI6203
aI3002
aI2476
aI2062
aI4492
aI7823
aI22809
aI18348
aI5432
aa(lp178
I23493
aI18522
aI10856
aI11953
aI10502
aI8825
aI7354
aI6419
aI4949
aI2700
aI2774
aI8902
aI21223
aI14463
aI14187
aI5678
aasg15
(lp179
(lp180
I31460
aI62444
aI11768
aI5330
aI3368
aI20480
aI18133
aI7066
aI2292
aI1048
aI8459
aI952
aI0
aI0
aI0
aI0
aa(lp181
I12250
aI42330
aI21663
aI15643
aI14928
aI10977
aI9985
aI7250
aI8009
aI6901
aI5958
aI4827
aI3363
aI3083
aI1649
aI3984
aa(lp182
I21315
aI18466
aI10876
aI10797
aI10033
aI10894
aI8961
aI6556
aI4964
aI2698
aI2277
aI3271
aI4593
aI24816
aI23197
aI9086
aasg20
(lp183
S'round'
p184
aS'shade'
p185
aS'tower'
p186
aS'back'
p187
aS'sun'
p188
aS'ground'
p189
aS'view'
p190
aS'church'
p191
aS'city'
p192
aS'white'
p193
aS'side'
p194
asg38
(lp195
sba(iclass_pictures
Pictures
p196
(dp197
g3
S'../../Data/image_labelling_datasets/iaprtc12/images/00/49.jpg'
p198
sg5
(lp199
(lp200
I17999
aI3792
aI4474
aI3214
aI5234
aI13374
aI22464
aI14409
aI9272
aI11910
aI9891
aI7908
aI7427
aI7238
aI6645
aI27549
aa(lp201
I0
aI0
aI0
aI0
aI0
aI0
aI0
aI15574
aI157175
aI51
aI0
aI0
aI0
aI0
aI0
aI0
aa(lp202
I0
aI0
aI0
aI0
aI0
aI0
aI0
aI9786
aI88176
aI69974
aI4864
aI0
aI0
aI0
aI0
aI0
aasg10
(lp203
(lp204
I25124
aI7206
aI5185
aI6115
aI9177
aI30884
aI18457
aI12739
aI9062
aI6270
aI6482
aI4617
aI4520
aI4334
aI3638
aI18990
aa(lp205
I17854
aI4545
aI5119
aI4614
aI7361
aI21563
aI20085
aI10187
aI11429
aI10701
aI7784
aI6703
aI6726
aI6002
aI5760
aI26367
aa(lp206
I14884
aI3425
aI4859
aI3793
aI5329
aI16796
aI19491
aI12128
aI8604
aI9585
aI10126
aI8449
aI7354
aI7207
aI7433
aI33337
aasg15
(lp207
(lp208
I41970
aI114354
aI2537
aI643
aI331
aI42
aI926
aI4459
aI3049
aI485
aI3638
aI366
aI0
aI0
aI0
aI0
aa(lp209
I34874
aI15297
aI14977
aI21392
aI18240
aI12509
aI9619
aI8617
aI5862
aI4528
aI4461
aI3419
aI2611
aI2048
aI1493
aI12853
aa(lp210
I14872
aI3437
aI4859
aI3785
aI4430
aI17593
aI19601
aI12128
aI8604
aI9585
aI10126
aI8449
aI7354
aI7207
aI7425
aI33345
aasg20
(lp211
S'photo'
p212
aS'sky'
p213
aS'round'
p214
aS'people'
p215
aS'back'
p216
aS'palm'
p217
aS'sun'
p218
aS'cloud'
p219
aS'ground'
p220
aS'tree'
p221
aS'beach'
p222
aS'light'
p223
aS'sunset'
p224
asg38
(lp225
sba(iclass_pictures
Pictures
p226
(dp227
g3
S'../../Data/image_labelling_datasets/iaprtc12/images/00/51.jpg'
p228
sg5
(lp229
(lp230
I20855
aI7902
aI10776
aI12729
aI8508
aI2863
aI3888
aI8833
aI18318
aI21137
aI20990
aI14870
aI11713
aI5019
aI4070
aI329
aa(lp231
I0
aI0
aI0
aI0
aI0
aI0
aI0
aI155758
aI17031
aI11
aI0
aI0
aI0
aI0
aI0
aI0
aa(lp232
I0
aI0
aI0
aI0
aI0
aI0
aI0
aI72007
aI96489
aI3114
aI1126
aI64
aI0
aI0
aI0
aI0
aasg10
(lp233
(lp234
I21770
aI11905
aI15395
aI12551
aI3104
aI516
aI1455
aI7843
aI20358
aI29324
aI22278
aI16448
aI8076
aI1768
aI9
aI0
aa(lp235
I18119
aI9156
aI12390
aI14498
aI8015
aI2242
aI5299
aI13516
aI18123
aI21626
aI19141
aI12089
aI10043
aI4480
aI3806
aI257
aa(lp236
I19431
aI12659
aI14147
aI11646
aI6863
aI8208
aI13688
aI18632
aI21121
aI14605
aI10278
aI10212
aI4716
aI3118
aI2743
aI733
aasg15
(lp237
(lp238
I6944
aI12568
aI17953
aI27746
aI26277
aI40986
aI39446
aI280
aI114
aI15
aI445
aI26
aI0
aI0
aI0
aI0
aa(lp239
I6906
aI45574
aI49144
aI28329
aI13955
aI7516
aI3779
aI1873
aI2287
aI1363
aI1036
aI1186
aI431
aI801
aI503
aI8117
aa(lp240
I17533
aI9469
aI12337
aI14359
aI8014
aI2004
aI1830
aI7660
aI20265
aI27268
aI20863
aI12185
aI10104
aI4522
aI3612
aI775
aasg20
(lp241
S'photo'
p242
aS'sky'
p243
aS'round'
p244
aS'tower'
p245
aS'back'
p246
aS'palm'
p247
aS'man'
p248
aS'ground'
p249
aS'column'
p250
aS'building'
p251
aS'pinnacle'
p252
aS'flag'
p253
aS'grey'
p254
aS'light'
p255
asg38
(lp256
sba(iclass_pictures
Pictures
p257
(dp258
g3
S'../../Data/image_labelling_datasets/iaprtc12/images/00/53.jpg'
p259
sg5
(lp260
(lp261
I37647
aI5943
aI3830
aI1934
aI1401
aI4050
aI7696
aI12652
aI15141
aI18177
aI16530
aI15908
aI12670
aI7514
aI6519
aI5188
aa(lp262
I0
aI0
aI0
aI0
aI0
aI0
aI1
aI134735
aI37922
aI141
aI1
aI0
aI0
aI0
aI0
aI0
aa(lp263
I0
aI0
aI0
aI0
aI0
aI0
aI59286
aI68928
aI44137
aI335
aI98
aI16
aI0
aI0
aI0
aI0
aasg10
(lp264
(lp265
I34648
aI7250
aI6745
aI1768
aI386
aI173
aI327
aI3700
aI10460
aI15509
aI24809
aI22096
aI20193
aI12784
aI11928
aI24
aa(lp266
I35441
aI7420
aI4649
aI2139
aI2020
aI5479
aI10505
aI12820
aI17067
aI15564
aI15678
aI14336
aI11434
aI6576
aI6048
aI5624
aa(lp267
I38008
aI7594
aI4115
aI7709
aI10707
aI12701
aI15305
aI15070
aI14804
aI12060
aI11116
aI7345
aI5597
aI4034
aI4106
aI2529
aasg15
(lp268
(lp269
I13229
aI9860
aI9449
aI4349
aI4740
aI13430
aI112058
aI4216
aI343
aI79
aI960
aI87
aI0
aI0
aI0
aI0
aa(lp270
I12764
aI15755
aI15212
aI16732
aI20262
aI21405
aI18575
aI14033
aI9988
aI5466
aI2624
aI2324
aI603
aI1918
aI480
aI14659
aa(lp271
I33395
aI7015
aI6249
aI2820
aI955
aI302
aI336
aI3704
aI10441
aI15260
aI24084
aI22679
aI20238
aI11774
aI7915
aI5633
aasg20
(lp272
S'sky'
p273
aS'round'
p274
aS'back'
p275
aS'man'
p276
aS'ground'
p277
aS'column'
p278
aS'city'
p279
aS'building'
p280
aS'grey'
p281
asg38
(lp282
sba(iclass_pictures
Pictures
p283
(dp284
g3
S'../../Data/image_labelling_datasets/iaprtc12/images/00/55.jpg'
p285
sg5
(lp286
(lp287
I82803
aI16202
aI12166
aI9991
aI5224
aI3317
aI2415
aI2094
aI2202
aI2380
aI2661
aI3530
aI5369
aI5804
aI6648
aI9994
aa(lp288
I0
aI0
aI0
aI0
aI0
aI0
aI24
aI47721
aI125051
aI4
aI0
aI0
aI0
aI0
aI0
aI0
aa(lp289
I0
aI0
aI0
aI0
aI0
aI0
aI6848
aI62544
aI100806
aI2573
aI27
aI2
aI0
aI0
aI0
aI0
aasg10
(lp290
(lp291
I81088
aI21353
aI14559
aI7385
aI3818
aI2437
aI2671
aI2732
aI2321
aI2070
aI2304
aI2883
aI2536
aI3167
aI3953
aI17523
aa(lp292
I76618
aI22118
aI15375
aI9195
aI4691
aI3049
aI2227
aI2155
aI2370
aI2233
aI2816
aI3629
aI5150
aI5513
aI5905
aI9756
aa(lp293
I75477
aI21928
aI13140
aI10602
aI6840
aI3068
aI2071
aI2320
aI2923
aI2856
aI4076
aI4116
aI6113
aI5117
aI3930
aI8223
aasg15
(lp294
(lp295
I35961
aI35857
aI9328
aI4324
aI4174
aI6029
aI30116
aI9637
aI17969
aI4494
aI13841
aI1070
aI0
aI0
aI0
aI0
aa(lp296
I15384
aI18171
aI15721
aI14333
aI14749
aI12305
aI15323
aI7345
aI17926
aI11597
aI4836
aI7454
aI1749
aI2569
aI1032
aI12306
aa(lp297
I69442
aI23147
aI14707
aI11220
aI7039
aI3181
aI2426
aI2612
aI2152
aI2278
aI2347
aI2531
aI3006
aI3770
aI4966
aI17976
aasg20
(lp298
S'photo'
p299
aS'sky'
p300
aS'round'
p301
aS'shade'
p302
aS'tower'
p303
aS'back'
p304
aS'ground'
p305
aS'tree'
p306
aS'gate'
p307
aS'light'
p308
asg38
(lp309
sba(iclass_pictures
Pictures
p310
(dp311
g3
S'../../Data/image_labelling_datasets/iaprtc12/images/00/56.jpg'
p312
sg5
(lp313
(lp314
I4435
aI4591
aI4812
aI1885
aI13773
aI22780
aI12298
aI9070
aI6253
aI4504
aI5731
aI4250
aI5248
aI9771
aI57728
aI5671
aa(lp315
I0
aI0
aI0
aI0
aI0
aI0
aI0
aI12040
aI159598
aI1162
aI0
aI0
aI0
aI0
aI0
aI0
aa(lp316
I0
aI0
aI0
aI0
aI0
aI32079
aI14036
aI2078
aI18380
aI100408
aI5819
aI0
aI0
aI0
aI0
aI0
aasg10
(lp317
(lp318
I9366
aI6255
aI4113
aI5375
aI4877
aI3969
aI4962
aI20170
aI24927
aI12808
aI15271
aI46848
aI13335
aI475
aI45
aI4
aa(lp319
I3772
aI7726
aI3267
aI3225
aI24494
aI17965
aI10850
aI6938
aI4976
aI5277
aI4441
aI4012
aI6099
aI18481
aI49526
aI1751
aa(lp320
I1045
aI4425
aI20217
aI24133
aI8656
aI4773
aI3523
aI3340
aI5626
aI5268
aI4455
aI5549
aI4017
aI4947
aI9580
aI63246
aasg15
(lp321
(lp322
I17290
aI106253
aI289
aI56
aI43
aI82
aI44333
aI3254
aI236
aI136
aI507
aI321
aI0
aI0
aI0
aI0
aa(lp323
I673
aI1411
aI2448
aI26088
aI50253
aI11974
aI7875
aI7569
aI11728
aI21270
aI18285
aI8279
aI2219
aI1411
aI604
aI713
aa(lp324
I934
aI4052
aI3893
aI4882
aI2217
aI2062
aI2923
aI17895
aI26037
aI12336
aI7708
aI6035
aI4046
aI4947
aI9580
aI63253
aasg20
(lp325
S'corner'
p326
aS'front'
p327
aS'tower'
p328
aS'street'
p329
aS'cathedral'
p330
aS'clock'
p331
aS'sun'
p332
aS'view'
p333
aS'bell'
p334
aS'pinnacle'
p335
aS'flag'
p336
aS'tree'
p337
aS'middle'
p338
aS'cross'
p339
aS'lamp'
p340
aS'gate'
p341
asg38
(lp342
sba(iclass_pictures
Pictures
p343
(dp344
g3
S'../../Data/image_labelling_datasets/iaprtc12/images/00/58.jpg'
p345
sg5
(lp346
(lp347
I17451
aI5398
aI7571
aI10007
aI9636
aI16317
aI17361
aI14375
aI16482
aI10673
aI10245
aI9328
aI8240
aI9378
aI7003
aI3335
aa(lp348
I0
aI0
aI0
aI0
aI0
aI1
aI3722
aI57264
aI111525
aI210
aI74
aI4
aI0
aI0
aI0
aI0
aa(lp349
I0
aI0
aI0
aI0
aI0
aI19105
aI23600
aI41918
aI67237
aI9641
aI11259
aI40
aI0
aI0
aI0
aI0
aasg10
(lp350
(lp351
I29122
aI10137
aI9749
aI8417
aI6593
aI4262
aI2835
aI2710
aI10856
aI20456
aI22451
aI18389
aI11133
aI8931
aI5126
aI1633
aa(lp352
I15614
aI6509
aI8983
aI11585
aI12756
aI17619
aI16919
aI15083
aI14980
aI10055
aI10182
aI8218
aI7886
aI8625
aI5116
aI2670
aa(lp353
I16776
aI6848
aI16240
aI21332
aI16689
aI14559
aI13096
aI10432
aI8419
aI8347
aI8252
aI6956
aI6679
aI7932
aI6300
aI3943
aasg15
(lp354
(lp355
I18459
aI34704
aI23535
aI6499
aI1970
aI2133
aI62074
aI17063
aI3014
aI824
aI2173
aI352
aI0
aI0
aI0
aI0
aa(lp356
I28686
aI29458
aI15546
aI11048
aI7410
aI6119
aI6218
aI8837
aI6871
aI9690
aI10638
aI8088
aI3046
aI2812
aI2143
aI16190
aa(lp357
I14821
aI6155
aI8275
aI10879
aI10351
aI7966
aI6861
aI5596
aI11497
aI20604
aI22298
aI18068
aI9427
aI8934
aI6922
aI4146
aasg20
(lp358
S'bush'
p359
aS'round'
p360
aS'flower'
p361
aS'ground'
p362
aS'column'
p363
aS'lot'
p364
aS'building'
p365
aS'bus'
p366
aS'lawn'
p367
aS'flag'
p368
aS'white'
p369
aS'tree'
p370
aS'bed'
p371
asg38
(lp372
sba(iclass_pictures
Pictures
p373
(dp374
g3
S'../../Data/image_labelling_datasets/iaprtc12/images/00/59.jpg'
p375
sg5
(lp376
(lp377
I8234
aI13667
aI13360
aI7753
aI5756
aI7822
aI13058
aI10691
aI10529
aI12629
aI10508
aI10594
aI11743
aI11809
aI11720
aI12927
aa(lp378
I0
aI0
aI0
aI0
aI0
aI0
aI7290
aI75643
aI86717
aI3031
aI119
aI0
aI0
aI0
aI0
aI0
aa(lp379
I0
aI0
aI0
aI0
aI0
aI0
aI51
aI29709
aI79166
aI42526
aI10667
aI8212
aI2459
aI10
aI0
aI0
aasg10
(lp380
(lp381
I16227
aI21450
aI13309
aI20402
aI9170
aI12019
aI9462
aI9568
aI9869
aI7446
aI7629
aI6019
aI5868
aI4923
aI6086
aI13353
aa(lp382
I4632
aI17165
aI15180
aI7964
aI6516
aI12995
aI12606
aI8487
aI12867
aI10827
aI9303
aI9731
aI10256
aI10919
aI9858
aI13494
aa(lp383
I5176
aI13802
aI17173
aI8085
aI5978
aI6810
aI9977
aI13828
aI9689
aI12233
aI12167
aI12192
aI12652
aI13302
aI9143
aI10593
aasg15
(lp384
(lp385
I17124
aI82711
aI24731
aI4072
aI6815
aI7594
aI17210
aI4175
aI1890
aI885
aI3444
aI2149
aI0
aI0
aI0
aI0
aa(lp386
I28071
aI25632
aI20319
aI14712
aI9955
aI9002
aI11222
aI12940
aI13703
aI6915
aI6209
aI4104
aI2902
aI2092
aI1497
aI3525
aa(lp387
I3238
aI13035
aI17282
aI8565
aI6201
aI6930
aI9842
aI13501
aI9715
aI12378
aI11634
aI10355
aI10130
aI11008
aI9973
aI19013
aasg20
(lp388
S'stair'
p389
aS'round'
p390
aS'one'
p391
aS'red'
p392
aS'roof'
p393
aS'port'
p394
aS'ground'
p395
aS'column'
p396
aS'wall'
p397
aS'building'
p398
aS'entrance'
p399
aS'tree'
p400
aS'rail'
p401
aS'glass'
p402
aS'green'
p403
asg38
(lp404
sba(iclass_pictures
Pictures
p405
(dp406
g3
S'../../Data/image_labelling_datasets/iaprtc12/images/00/60.jpg'
p407
sg5
(lp408
(lp409
I13382
aI9151
aI10796
aI12808
aI11887
aI12726
aI11615
aI10057
aI8860
aI9044
aI5762
aI6021
aI3830
aI3542
aI2220
aI41099
aa(lp410
I0
aI0
aI0
aI0
aI0
aI0
aI3108
aI21538
aI145192
aI2909
aI53
aI0
aI0
aI0
aI0
aI0
aa(lp411
I0
aI0
aI0
aI0
aI0
aI13
aI1391
aI44436
aI100190
aI21593
aI4339
aI829
aI9
aI0
aI0
aI0
aasg10
(lp412
(lp413
I15579
aI14408
aI13218
aI12787
aI14522
aI13654
aI12386
aI9772
aI7463
aI5631
aI3377
aI3784
aI2517
aI2123
aI1693
aI39886
aa(lp414
I12462
aI10886
aI12807
aI14927
aI14043
aI12955
aI11932
aI8825
aI8720
aI6791
aI5110
aI4961
aI2934
aI3119
aI1494
aI40834
aa(lp415
I9494
aI12015
aI11387
aI12585
aI16201
aI10368
aI8417
aI10084
aI10325
aI8099
aI5362
aI4635
aI4188
aI4616
aI2960
aI42064
aasg15
(lp416
(lp417
I71297
aI34375
aI3080
aI1589
aI4226
aI2874
aI12683
aI16782
aI5639
aI5367
aI11131
aI3757
aI0
aI0
aI0
aI0
aa(lp418
I53739
aI20830
aI17166
aI14215
aI10576
aI8796
aI9210
aI8944
aI6241
aI5250
aI4302
aI3683
aI2960
aI2444
aI1465
aI2979
aa(lp419
I5613
aI10746
aI11503
aI13339
aI12804
aI12672
aI11225
aI11182
aI9797
aI8713
aI5394
aI5344
aI4544
aI4647
aI3047
aI42230
aasg20
(lp420
S'shop'
p421
aS'people'
p422
aS'street'
p423
aS'park'
p424
aS'car'
p425
aS'tree'
p426
aS'side'
p427
aS'cross'
p428
aS'lane'
p429
asg38
(lp430
sba(iclass_pictures
Pictures
p431
(dp432
g3
S'../../Data/image_labelling_datasets/iaprtc12/images/00/61.jpg'
p433
sg5
(lp434
(lp435
I8636
aI8294
aI13103
aI14489
aI16399
aI16883
aI14255
aI11894
aI9057
aI7607
aI6824
aI6343
aI5913
aI5271
aI5551
aI22281
aa(lp436
I0
aI0
aI0
aI0
aI0
aI9
aI35186
aI106976
aI29200
aI1328
aI101
aI0
aI0
aI0
aI0
aI0
aa(lp437
I0
aI0
aI0
aI0
aI0
aI11
aI4652
aI27762
aI51570
aI50384
aI26639
aI9443
aI2266
aI73
aI0
aI0
aasg10
(lp438
(lp439
I37856
aI22909
aI17284
aI12749
aI10474
aI9434
aI7963
aI7244
aI6974
aI5377
aI4017
aI3388
aI2962
aI3346
aI4477
aI16346
aa(lp440
I7022
aI8485
aI13822
aI16125
aI17901
aI17271
aI14790
aI11511
aI8432
aI7129
aI6595
aI5801
aI5351
aI4719
aI5195
aI22651
aa(lp441
I10555
aI13794
aI17662
aI19700
aI17954
aI13876
aI10095
aI7807
aI6767
aI6537
aI5987
aI5713
aI5031
aI5428
aI6167
aI19727
aasg15
(lp442
(lp443
I9774
aI34815
aI62439
aI21339
aI6324
aI11205
aI20292
aI2676
aI776
aI1852
aI1045
aI263
aI0
aI0
aI0
aI0
aa(lp444
I18632
aI12247
aI9870
aI8875
aI9190
aI11375
aI12776
aI10878
aI10332
aI9891
aI9822
aI9265
aI7691
aI6775
aI5394
aI19787
aa(lp445
I5686
aI6967
aI12909
aI15869
aI17228
aI17039
aI14147
aI11355
aI10015
aI8372
aI6950
aI6153
aI5364
aI5452
aI5141
aI24153
aasg20
(lp446
S'river'
p447
aS'line'
p448
aS'tree'
p449
aS'side'
p450
aS'green'
p451
asg38
(lp452
sba(iclass_pictures
Pictures
p453
(dp454
g3
S'../../Data/image_labelling_datasets/iaprtc12/images/00/62.jpg'
p455
sg5
(lp456
(lp457
I33755
aI29427
aI11346
aI12676
aI14754
aI11707
aI9630
aI6196
aI3247
aI1662
aI793
aI2190
aI4298
aI8753
aI22329
aI37
aa(lp458
I0
aI0
aI0
aI0
aI0
aI0
aI0
aI104725
aI67563
aI512
aI0
aI0
aI0
aI0
aI0
aI0
aa(lp459
I0
aI0
aI0
aI0
aI0
aI0
aI18850
aI65441
aI62630
aI22104
aI3673
aI100
aI2
aI0
aI0
aI0
aasg10
(lp460
(lp461
I29040
aI30211
aI15424
aI10923
aI8922
aI16920
aI14273
aI7728
aI3137
aI3416
aI3517
aI7979
aI9101
aI9502
aI2707
aI0
aa(lp462
I23229
aI38190
aI13466
aI14142
aI16021
aI11872
aI9761
aI5400
aI1908
aI1045
aI1027
aI3251
aI4557
aI11715
aI17203
aI13
aa(lp463
I41922
aI33718
aI24436
aI7643
aI9681
aI5628
aI3087
aI2286
aI2521
aI2254
aI1096
aI1157
aI4251
aI9619
aI22314
aI1187
aasg15
(lp464
(lp465
I10871
aI58859
aI9750
aI3362
aI2951
aI8377
aI74031
aI3171
aI184
aI80
aI857
aI307
aI0
aI0
aI0
aI0
aa(lp466
I9079
aI12571
aI12326
aI12575
aI13621
aI7655
aI8126
aI8385
aI9270
aI14090
aI19538
aI17883
aI9901
aI7194
aI4602
aI5984
aa(lp467
I9815
aI36686
aI21382
aI9990
aI8763
aI16688
aI14760
aI8612
aI4202
aI2277
aI1088
aI1074
aI3763
aI6968
aI25544
aI1188
aasg20
(lp468
S'chair'
p469
aS'round'
p470
aS'cape'
p471
aS'house'
p472
aS'back'
p473
aS'hair'
p474
aS'sun'
p475
aS'ground'
p476
aS'terrace'
p477
aS'pool'
p478
aS'cap'
p479
aS'tree'
p480
aS'landscape'
p481
aS'green'
p482
asg38
(lp483
sba(iclass_pictures
Pictures
p484
(dp485
g3
S'../../Data/image_labelling_datasets/iaprtc12/images/00/63.jpg'
p486
sg5
(lp487
(lp488
I14615
aI3893
aI4514
aI5039
aI5358
aI7196
aI5944
aI10555
aI34594
aI31752
aI27282
aI7163
aI6834
aI6406
aI1588
aI67
aa(lp489
I0
aI0
aI0
aI0
aI0
aI16
aI1139
aI56131
aI113992
aI566
aI491
aI434
aI31
aI0
aI0
aI0
aa(lp490
I0
aI0
aI0
aI0
aI3
aI1155
aI58964
aI58574
aI33867
aI9253
aI10568
aI408
aI8
aI0
aI0
aI0
aasg10
(lp491
(lp492
I17782
aI6886
aI8005
aI9228
aI9279
aI5526
aI2564
aI1995
aI1589
aI2664
aI28052
aI63520
aI9101
aI5858
aI714
aI37
aa(lp493
I13727
aI4845
aI5523
aI5887
aI7117
aI7387
aI4186
aI21193
aI34639
aI38328
aI11390
aI7153
aI6482
aI4314
aI574
aI55
aa(lp494
I13588
aI4947
aI5572
aI5643
aI5733
aI19739
aI31223
aI23430
aI23637
aI14632
aI5300
aI5934
aI5582
aI5497
aI1726
aI617
aasg15
(lp495
(lp496
I13853
aI20469
aI12689
aI1635
aI1078
aI1250
aI84963
aI16954
aI8822
aI4513
aI5773
aI801
aI0
aI0
aI0
aI0
aa(lp497
I18908
aI16317
aI16106
aI14703
aI13521
aI13905
aI28690
aI18777
aI9538
aI5168
aI3347
aI2639
aI1276
aI1813
aI764
aI7328
aa(lp498
I12628
aI4622
aI5121
aI5359
aI5529
aI6206
aI6090
aI6931
aI6266
aI4005
aI28526
aI63894
aI8584
aI6537
aI1868
aI634
aasg20
(lp499
S'sky'
p500
aS'round'
p501
aS'pole'
p502
aS'back'
p503
aS'cloud'
p504
aS'ground'
p505
aS'column'
p506
aS'flagpole'
p507
aS'building'
p508
aS'lawn'
p509
aS'flag'
p510
aS'white'
p511
aS'grey'
p512
aS'green'
p513
asg38
(lp514
sba.